; Function Attrs: nounwind uwtable
define ptr @l_Lean_PrettyPrinter_Formatter_optionalNoAntiquot_formatter(ptr noundef %0, ptr noundef %1, ptr noundef %2, ptr noundef %3, ptr noundef %4, ptr noundef %5) local_unnamed_addr #0 {
  %7 = tail call ptr @l_Lean_Syntax_MonadTraverser_getCur___at_Lean_PrettyPrinter_Formatter_visitArgs___spec__1___rarg(ptr noundef %2, ptr poison, ptr poison, ptr noundef %5)
  %8 = getelementptr inbounds nuw i8, ptr %7, i64 8
  %9 = load ptr, ptr %8, align 8, !tbaa !4
  %10 = ptrtoint ptr %9 to i64
  %11 = and i64 %10, 1
  %.not = icmp eq i64 %11, 0
  br i1 %.not, label %12, label %lean_inc.exit31

12:                                               ; preds = %6
  %.val.i = load i32, ptr %9, align 4, !tbaa !8
  %13 = icmp sgt i32 %.val.i, 0
  br i1 %13, label %14, label %16, !prof !11

14:                                               ; preds = %12
  %15 = add nuw i32 %.val.i, 1
  store i32 %15, ptr %9, align 4, !tbaa !8
  br label %lean_inc.exit31

16:                                               ; preds = %12
  %.not.i41 = icmp eq i32 %.val.i, 0
  br i1 %.not.i41, label %lean_inc.exit31, label %17

17:                                               ; preds = %16
  tail call void @lean_inc_ref_cold(ptr noundef nonnull %9) #6
  br label %lean_inc.exit31

lean_inc.exit31:                                  ; preds = %17, %16, %14, %6
  %18 = getelementptr inbounds nuw i8, ptr %7, i64 16
  %19 = load ptr, ptr %18, align 8, !tbaa !4
  %20 = ptrtoint ptr %19 to i64
  %21 = and i64 %20, 1
  %.not45 = icmp eq i64 %21, 0
  br i1 %.not45, label %22, label %lean_inc.exit

22:                                               ; preds = %lean_inc.exit31
  %.val.i42 = load i32, ptr %19, align 4, !tbaa !8
  %23 = icmp sgt i32 %.val.i42, 0
  br i1 %23, label %24, label %26, !prof !11

24:                                               ; preds = %22
  %25 = add nuw i32 %.val.i42, 1
  store i32 %25, ptr %19, align 4, !tbaa !8
  br label %lean_inc.exit

26:                                               ; preds = %22
  %.not.i43 = icmp eq i32 %.val.i42, 0
  br i1 %.not.i43, label %lean_inc.exit, label %27

27:                                               ; preds = %26
  tail call void @lean_inc_ref_cold(ptr noundef nonnull %19) #6
  br label %lean_inc.exit

lean_inc.exit:                                    ; preds = %27, %26, %24, %lean_inc.exit31
  %28 = ptrtoint ptr %7 to i64
  %29 = and i64 %28, 1
  %.not46 = icmp eq i64 %29, 0
  br i1 %.not46, label %30, label %lean_dec.exit34

30:                                               ; preds = %lean_inc.exit
  %31 = load i32, ptr %7, align 4, !tbaa !8
  %32 = icmp sgt i32 %31, 1
  br i1 %32, label %33, label %35, !prof !11

33:                                               ; preds = %30
  %34 = add nsw i32 %31, -1
  store i32 %34, ptr %7, align 4, !tbaa !8
  br label %lean_dec.exit34

35:                                               ; preds = %30
  %.not.i = icmp eq i32 %31, 0
  br i1 %.not.i, label %lean_dec.exit34, label %36

36:                                               ; preds = %35
  tail call void @lean_dec_ref_cold(ptr noundef nonnull %7) #6
  br label %lean_dec.exit34

lean_dec.exit34:                                  ; preds = %36, %35, %33, %lean_inc.exit
  %37 = tail call ptr @l_Lean_Syntax_getArgs(ptr noundef %9) #6
  br i1 %.not, label %38, label %lean_dec.exit33

38:                                               ; preds = %lean_dec.exit34
  %39 = load i32, ptr %9, align 4, !tbaa !8
  %40 = icmp sgt i32 %39, 1
  br i1 %40, label %41, label %43, !prof !11

41:                                               ; preds = %38
  %42 = add nsw i32 %39, -1
  store i32 %42, ptr %9, align 4, !tbaa !8
  br label %lean_dec.exit33

43:                                               ; preds = %38
  %.not.i35 = icmp eq i32 %39, 0
  br i1 %.not.i35, label %lean_dec.exit33, label %44

44:                                               ; preds = %43
  tail call void @lean_dec_ref_cold(ptr noundef nonnull %9) #6
  br label %lean_dec.exit33

lean_dec.exit33:                                  ; preds = %44, %43, %41, %lean_dec.exit34
  %45 = tail call zeroext i8 @l_Array_isEmpty___rarg(ptr noundef %37) #6
  %46 = ptrtoint ptr %37 to i64
  %47 = and i64 %46, 1
  %.not47 = icmp eq i64 %47, 0
  br i1 %.not47, label %48, label %lean_dec.exit32

48:                                               ; preds = %lean_dec.exit33
  %49 = load i32, ptr %37, align 4, !tbaa !8
  %50 = icmp sgt i32 %49, 1
  br i1 %50, label %51, label %53, !prof !11

51:                                               ; preds = %48
  %52 = add nsw i32 %49, -1
  store i32 %52, ptr %37, align 4, !tbaa !8
  br label %lean_dec.exit32

53:                                               ; preds = %48
  %.not.i37 = icmp eq i32 %49, 0
  br i1 %.not.i37, label %lean_dec.exit32, label %54

54:                                               ; preds = %53
  tail call void @lean_dec_ref_cold(ptr noundef nonnull %37) #6
  br label %lean_dec.exit32

lean_dec.exit32:                                  ; preds = %54, %53, %51, %lean_dec.exit33
  %55 = icmp eq i8 %45, 0
  br i1 %55, label %74, label %56

56:                                               ; preds = %lean_dec.exit32
  %57 = ptrtoint ptr %0 to i64
  %58 = and i64 %57, 1
  %.not48 = icmp eq i64 %58, 0
  br i1 %.not48, label %59, label %lean_dec.exit

59:                                               ; preds = %56
  %60 = load i32, ptr %0, align 4, !tbaa !8
  %61 = icmp sgt i32 %60, 1
  br i1 %61, label %62, label %64, !prof !11

62:                                               ; preds = %59
  %63 = add nsw i32 %60, -1
  store i32 %63, ptr %0, align 4, !tbaa !8
  br label %lean_dec.exit

64:                                               ; preds = %59
  %.not.i39 = icmp eq i32 %60, 0
  br i1 %.not.i39, label %lean_dec.exit, label %65

65:                                               ; preds = %64
  tail call void @lean_dec_ref_cold(ptr noundef nonnull %0) #6
  br label %lean_dec.exit

lean_dec.exit:                                    ; preds = %65, %64, %62, %56
  tail call void @lean_inc_heartbeat() #6
  %66 = tail call noalias ptr @mi_malloc_small(i64 noundef 32) #6
  %67 = icmp eq ptr %66, null
  br i1 %67, label %68, label %lean_alloc_closure.exit

68:                                               ; preds = %lean_dec.exit
  tail call void @lean_internal_panic_out_of_memory() #7
  unreachable

lean_alloc_closure.exit:                          ; preds = %lean_dec.exit
  %69 = getelementptr inbounds nuw i8, ptr %66, i64 4
  store i32 1, ptr %66, align 4, !tbaa !8
  store i32 -184549344, ptr %69, align 4
  %70 = getelementptr inbounds nuw i8, ptr %66, i64 8
  store ptr @l_ReaderT_pure___at_Lean_PrettyPrinter_Formatter_optionalNoAntiquot_formatter___spec__1___rarg___boxed, ptr %70, align 8, !tbaa !4
  %71 = getelementptr inbounds nuw i8, ptr %66, i64 16
  store i16 6, ptr %71, align 8, !tbaa !15
  %72 = getelementptr inbounds nuw i8, ptr %66, i64 18
  store i16 1, ptr %72, align 2, !tbaa !15
  %73 = getelementptr inbounds nuw i8, ptr %66, i64 24
  store ptr inttoptr (i64 1 to ptr), ptr %73, align 8, !tbaa !4
  br label %74

74:                                               ; preds = %lean_dec.exit32, %lean_alloc_closure.exit
  %.sink = phi ptr [ %66, %lean_alloc_closure.exit ], [ %0, %lean_dec.exit32 ]
  %75 = tail call ptr @l_Lean_PrettyPrinter_Formatter_visitArgs(ptr noundef %.sink, ptr noundef %1, ptr noundef %2, ptr noundef %3, ptr noundef %4, ptr noundef %19)
  ret ptr %75
}